target datalayout = "e-m:e-p270:32:32-p271:32:32-p272:64:64-i64:64-i128:128-f80:128-n8:16:32:64-S128"
target triple = "x86_64-pc-linux-gnu"

%"struct.Luau::CodeGen::X64::OperandX64" = type { i8, %"struct.Luau::CodeGen::X64::RegisterX64", %"struct.Luau::CodeGen::X64::RegisterX64", i8, i32 }
%"struct.Luau::CodeGen::X64::RegisterX64" = type { i8 }

@_ZN4Luau7CodeGen3X64L5noregE = internal constant %"struct.Luau::CodeGen::X64::RegisterX64" { i8 -128 }, align 1

; Function Attrs: mustprogress nounwind uwtable
define linkonce_odr dso_local void @_ZN4Luau7CodeGen3X6410OperandX64C2ENS1_11RegisterX64E(ptr noundef nonnull align 4 dereferenceable(8) %0, i8 %1) unnamed_addr #4 comdat align 2 {
  %3 = alloca %"struct.Luau::CodeGen::X64::RegisterX64", align 1
  %4 = alloca ptr, align 8
  %5 = getelementptr inbounds nuw %"struct.Luau::CodeGen::X64::RegisterX64", ptr %3, i32 0, i32 0
  store i8 %1, ptr %5, align 1
  store ptr %0, ptr %4, align 8, !tbaa !24
  %6 = load ptr, ptr %4, align 8
  %7 = getelementptr inbounds nuw %"struct.Luau::CodeGen::X64::OperandX64", ptr %6, i32 0, i32 0
  store i8 0, ptr %7, align 4, !tbaa !13
  %8 = getelementptr inbounds nuw %"struct.Luau::CodeGen::X64::OperandX64", ptr %6, i32 0, i32 1
  call void @llvm.memcpy.p0.p0.i64(ptr align 1 %8, ptr align 1 @_ZN4Luau7CodeGen3X64L5noregE, i64 1, i1 false), !tbaa.struct !23
  %9 = getelementptr inbounds nuw %"struct.Luau::CodeGen::X64::OperandX64", ptr %6, i32 0, i32 2
  call void @llvm.memcpy.p0.p0.i64(ptr align 2 %9, ptr align 1 %3, i64 1, i1 false), !tbaa.struct !23
  %10 = getelementptr inbounds nuw %"struct.Luau::CodeGen::X64::OperandX64", ptr %6, i32 0, i32 3
  %11 = load i8, ptr %10, align 1
  %12 = and i8 %11, -16
  %13 = or i8 %12, 0
  store i8 %13, ptr %10, align 1
  %14 = getelementptr inbounds nuw %"struct.Luau::CodeGen::X64::OperandX64", ptr %6, i32 0, i32 3
  %15 = load i8, ptr %14, align 1
  %16 = and i8 %15, 15
  %17 = or i8 %16, 16
  store i8 %17, ptr %14, align 1
  %18 = getelementptr inbounds nuw %"struct.Luau::CodeGen::X64::OperandX64", ptr %6, i32 0, i32 4
  store i32 0, ptr %18, align 4, !tbaa !26
  ret void
}

; Function Attrs: inlinehint mustprogress nounwind uwtable
define linkonce_odr dso_local void @_ZSt4swapIN4Luau7CodeGen3X6410OperandX64EENSt9enable_ifIXsr6__and_ISt6__not_ISt15__is_tuple_likeIT_EESt21is_move_constructibleIS7_ESt18is_move_assignableIS7_EEE5valueEvE4typeERS7_SG_(ptr noundef nonnull align 4 dereferenceable(8) %0, ptr noundef nonnull align 4 dereferenceable(8) %1) #1 comdat {
  %3 = alloca ptr, align 8
  %4 = alloca ptr, align 8
  %5 = alloca %"struct.Luau::CodeGen::X64::OperandX64", align 4
  store ptr %0, ptr %3, align 8, !tbaa !24
  store ptr %1, ptr %4, align 8, !tbaa !24
  call void @llvm.lifetime.start.p0(i64 8, ptr %5) #8
  %6 = load ptr, ptr %3, align 8, !tbaa !24
  call void @llvm.memcpy.p0.p0.i64(ptr align 4 %5, ptr align 4 %6, i64 8, i1 false), !tbaa.struct !19
  %7 = load ptr, ptr %4, align 8, !tbaa !24
  %8 = load ptr, ptr %3, align 8, !tbaa !24
  call void @llvm.memcpy.p0.p0.i64(ptr align 4 %8, ptr align 4 %7, i64 8, i1 false), !tbaa.struct !19
  %9 = load ptr, ptr %4, align 8, !tbaa !24
  call void @llvm.memcpy.p0.p0.i64(ptr align 4 %9, ptr align 4 %5, i64 8, i1 false), !tbaa.struct !19
  call void @llvm.lifetime.end.p0(i64 8, ptr %5) #8
  ret void
}

; Function Attrs: mustprogress uwtable
define dso_local void @_ZN4Luau7CodeGen3X6415jumpOnNumberCmpERNS1_18AssemblyBuilderX64ENS1_11RegisterX64ENS1_10OperandX64ES5_NS0_11IrConditionERNS0_5LabelE(ptr noundef nonnull align 8 dereferenceable(252) %0, i8 %1, i64 %2, i64 %3, i8 noundef zeroext %4, ptr noundef nonnull align 4 dereferenceable(8) %5) #0 {
  %7 = alloca %"struct.Luau::CodeGen::X64::RegisterX64", align 1
  %8 = alloca %"struct.Luau::CodeGen::X64::OperandX64", align 4
  %9 = alloca %"struct.Luau::CodeGen::X64::OperandX64", align 4
  %10 = alloca ptr, align 8
  %11 = alloca i8, align 1
  %12 = alloca ptr, align 8
  %13 = alloca %"struct.Luau::CodeGen::X64::OperandX64", align 4
  %14 = alloca %"struct.Luau::CodeGen::X64::OperandX64", align 4
  %15 = alloca %"struct.Luau::CodeGen::X64::OperandX64", align 4
  %16 = alloca %"struct.Luau::CodeGen::X64::RegisterX64", align 1
  %17 = alloca %"struct.Luau::CodeGen::X64::OperandX64", align 4
  %18 = alloca %"struct.Luau::CodeGen::X64::OperandX64", align 4
  %19 = alloca %"struct.Luau::CodeGen::X64::RegisterX64", align 1
  %20 = alloca %"struct.Luau::CodeGen::X64::OperandX64", align 4
  %21 = getelementptr inbounds nuw %"struct.Luau::CodeGen::X64::RegisterX64", ptr %7, i32 0, i32 0
  store i8 %1, ptr %21, align 1
  store i64 %2, ptr %8, align 4
  store i64 %3, ptr %9, align 4
  store ptr %0, ptr %10, align 8, !tbaa !4
  store i8 %4, ptr %11, align 1, !tbaa !9
  store ptr %5, ptr %12, align 8, !tbaa !11
  %22 = load i8, ptr %11, align 1, !tbaa !9
  %23 = icmp eq i8 %22, 6
  br i1 %23, label %33, label %24

24:                                               ; preds = %6
  %25 = load i8, ptr %11, align 1, !tbaa !9
  %26 = icmp eq i8 %25, 8
  br i1 %26, label %33, label %27

27:                                               ; preds = %24
  %28 = load i8, ptr %11, align 1, !tbaa !9
  %29 = icmp eq i8 %28, 7
  br i1 %29, label %33, label %30

30:                                               ; preds = %27
  %31 = load i8, ptr %11, align 1, !tbaa !9
  %32 = icmp eq i8 %31, 9
  br i1 %32, label %33, label %34

33:                                               ; preds = %30, %27, %24, %6
  call void @_ZSt4swapIN4Luau7CodeGen3X6410OperandX64EENSt9enable_ifIXsr6__and_ISt6__not_ISt15__is_tuple_likeIT_EESt21is_move_constructibleIS7_ESt18is_move_assignableIS7_EEE5valueEvE4typeERS7_SG_(ptr noundef nonnull align 4 dereferenceable(8) %8, ptr noundef nonnull align 4 dereferenceable(8) %9) #8
  br label %34

34:                                               ; preds = %33, %30
  %35 = getelementptr inbounds nuw %"struct.Luau::CodeGen::X64::OperandX64", ptr %9, i32 0, i32 0
  %36 = load i8, ptr %35, align 4, !tbaa !13
  %37 = icmp eq i8 %36, 0
  br i1 %37, label %38, label %42

38:                                               ; preds = %34
  %39 = load ptr, ptr %10, align 8, !tbaa !4
  call void @llvm.memcpy.p0.p0.i64(ptr align 4 %13, ptr align 4 %9, i64 8, i1 false), !tbaa.struct !19
  call void @llvm.memcpy.p0.p0.i64(ptr align 4 %14, ptr align 4 %8, i64 8, i1 false), !tbaa.struct !19
  %40 = load i64, ptr %13, align 4
  %41 = load i64, ptr %14, align 4
  call void @_ZN4Luau7CodeGen3X6418AssemblyBuilderX648vucomisdENS1_10OperandX64ES3_(ptr noundef nonnull align 8 dereferenceable(252) %39, i64 %40, i64 %41)
  br label %53

42:                                               ; preds = %34
  %43 = load ptr, ptr %10, align 8, !tbaa !4
  call void @llvm.memcpy.p0.p0.i64(ptr align 1 %16, ptr align 1 %7, i64 1, i1 false), !tbaa.struct !23
  %44 = getelementptr inbounds nuw %"struct.Luau::CodeGen::X64::RegisterX64", ptr %16, i32 0, i32 0
  %45 = load i8, ptr %44, align 1
  call void @_ZN4Luau7CodeGen3X6410OperandX64C2ENS1_11RegisterX64E(ptr noundef nonnull align 4 dereferenceable(8) %15, i8 %45)
  call void @llvm.memcpy.p0.p0.i64(ptr align 4 %17, ptr align 4 %9, i64 8, i1 false), !tbaa.struct !19
  %46 = load i64, ptr %15, align 4
  %47 = load i64, ptr %17, align 4
  call void @_ZN4Luau7CodeGen3X6418AssemblyBuilderX646vmovsdENS1_10OperandX64ES3_(ptr noundef nonnull align 8 dereferenceable(252) %43, i64 %46, i64 %47)
  %48 = load ptr, ptr %10, align 8, !tbaa !4
  call void @llvm.memcpy.p0.p0.i64(ptr align 1 %19, ptr align 1 %7, i64 1, i1 false), !tbaa.struct !23
  %49 = getelementptr inbounds nuw %"struct.Luau::CodeGen::X64::RegisterX64", ptr %19, i32 0, i32 0
  %50 = load i8, ptr %49, align 1
  call void @_ZN4Luau7CodeGen3X6410OperandX64C2ENS1_11RegisterX64E(ptr noundef nonnull align 4 dereferenceable(8) %18, i8 %50)
  call void @llvm.memcpy.p0.p0.i64(ptr align 4 %20, ptr align 4 %8, i64 8, i1 false), !tbaa.struct !19
  %51 = load i64, ptr %18, align 4
  %52 = load i64, ptr %20, align 4
  call void @_ZN4Luau7CodeGen3X6418AssemblyBuilderX648vucomisdENS1_10OperandX64ES3_(ptr noundef nonnull align 8 dereferenceable(252) %48, i64 %51, i64 %52)
  br label %53

53:                                               ; preds = %42, %38
  %54 = load i8, ptr %11, align 1, !tbaa !9
  switch i8 %54, label %72 [
    i8 5, label %55
    i8 9, label %55
    i8 4, label %58
    i8 8, label %58
    i8 3, label %61
    i8 7, label %61
    i8 2, label %64
    i8 6, label %64
    i8 1, label %67
  ]

55:                                               ; preds = %53, %53
  %56 = load ptr, ptr %10, align 8, !tbaa !4
  %57 = load ptr, ptr %12, align 8, !tbaa !11
  call void @_ZN4Luau7CodeGen3X6418AssemblyBuilderX643jccENS0_12ConditionX64ERNS0_5LabelE(ptr noundef nonnull align 8 dereferenceable(252) %56, i8 noundef zeroext 16, ptr noundef nonnull align 4 dereferenceable(8) %57)
  br label %73

58:                                               ; preds = %53, %53
  %59 = load ptr, ptr %10, align 8, !tbaa !4
  %60 = load ptr, ptr %12, align 8, !tbaa !11
  call void @_ZN4Luau7CodeGen3X6418AssemblyBuilderX643jccENS0_12ConditionX64ERNS0_5LabelE(ptr noundef nonnull align 8 dereferenceable(252) %59, i8 noundef zeroext 7, ptr noundef nonnull align 4 dereferenceable(8) %60)
  br label %73

61:                                               ; preds = %53, %53
  %62 = load ptr, ptr %10, align 8, !tbaa !4
  %63 = load ptr, ptr %12, align 8, !tbaa !11
  call void @_ZN4Luau7CodeGen3X6418AssemblyBuilderX643jccENS0_12ConditionX64ERNS0_5LabelE(ptr noundef nonnull align 8 dereferenceable(252) %62, i8 noundef zeroext 15, ptr noundef nonnull align 4 dereferenceable(8) %63)
  br label %73

64:                                               ; preds = %53, %53
  %65 = load ptr, ptr %10, align 8, !tbaa !4
  %66 = load ptr, ptr %12, align 8, !tbaa !11
  call void @_ZN4Luau7CodeGen3X6418AssemblyBuilderX643jccENS0_12ConditionX64ERNS0_5LabelE(ptr noundef nonnull align 8 dereferenceable(252) %65, i8 noundef zeroext 6, ptr noundef nonnull align 4 dereferenceable(8) %66)
  br label %73

67:                                               ; preds = %53
  %68 = load ptr, ptr %10, align 8, !tbaa !4
  %69 = load ptr, ptr %12, align 8, !tbaa !11
  call void @_ZN4Luau7CodeGen3X6418AssemblyBuilderX643jccENS0_12ConditionX64ERNS0_5LabelE(ptr noundef nonnull align 8 dereferenceable(252) %68, i8 noundef zeroext 23, ptr noundef nonnull align 4 dereferenceable(8) %69)
  %70 = load ptr, ptr %10, align 8, !tbaa !4
  %71 = load ptr, ptr %12, align 8, !tbaa !11
  call void @_ZN4Luau7CodeGen3X6418AssemblyBuilderX643jccENS0_12ConditionX64ERNS0_5LabelE(ptr noundef nonnull align 8 dereferenceable(252) %70, i8 noundef zeroext 24, ptr noundef nonnull align 4 dereferenceable(8) %71)
  br label %73

72:                                               ; preds = %53
  br label %73

73:                                               ; preds = %72, %67, %64, %61, %58, %55
  ret void
}